target datalayout = "e-m:e-p270:32:32-p271:32:32-p272:64:64-i64:64-i128:128-f80:128-n8:16:32:64-S128"
target triple = "x86_64-pc-linux-gnu"

; Function Attrs: nounwind uwtable
define dso_local void @check_GUC_name_for_parameter_acl(ptr noundef %0) #0 {
  %2 = alloca ptr, align 8
  store ptr %0, ptr %2, align 8
  %3 = load ptr, ptr %2, align 8
  %4 = call ptr @find_option(ptr noundef %3, i1 noundef zeroext false, i1 noundef zeroext true, i32 noundef 10)
  %5 = icmp ne ptr %4, null
  br i1 %5, label %6, label %7

6:                                                ; preds = %1
  br label %10

7:                                                ; preds = %1
  %8 = load ptr, ptr %2, align 8
  %9 = call zeroext i1 @assignable_custom_variable_name(ptr noundef %8, i1 noundef zeroext false, i32 noundef 21)
  br label %10

10:                                               ; preds = %7, %6
  ret void
}