; Function Attrs: nounwind uwtable
define dso_local void @check_GUC_name_for_parameter_acl(ptr noundef %0) local_unnamed_addr #0 {
  %2 = tail call ptr @find_option(ptr noundef %0, i1 noundef zeroext false, i1 noundef zeroext true, i32 noundef 10)
  %.not = icmp eq ptr %2, null
  br i1 %.not, label %3, label %5

3:                                                ; preds = %1
  %4 = tail call fastcc zeroext i1 @assignable_custom_variable_name(ptr noundef %0, i1 noundef zeroext false, i32 noundef 21)
  br label %5

5:                                                ; preds = %1, %3
  ret void
}